; ModuleID = '39/2132.c'
source_filename = "39/2132.c"
target datalayout = "e-m:e-p270:32:32-p271:32:32-p272:64:64-i64:64-f80:128-n8:16:32:64-S128"
target triple = "x86_64-pc-linux-gnu"

%struct.student = type { [20 x i8], i32, i32, i8, i8, i32 }

@.str = private unnamed_addr constant [3 x i8] c"%d\00", align 1
@.str.1 = private unnamed_addr constant [15 x i8] c"%s%d%d %c %c%d\00", align 1
@.str.2 = private unnamed_addr constant [10 x i8] c"%s\0A%d\0A%d\0A\00", align 1

; Function Attrs: noinline nounwind uwtable
define dso_local void @main() #0 {
  %1 = alloca [100 x %struct.student], align 16
  %2 = alloca i32, align 4
  %3 = alloca i32, align 4
  %4 = alloca i32, align 4
  %5 = alloca i32, align 4
  %6 = alloca i32, align 4
  %7 = alloca [100 x i32], align 16
  %8 = call i32 (i8*, ...) @__isoc99_scanf(i8* getelementptr inbounds ([3 x i8], [3 x i8]* @.str, i64 0, i64 0), i32* %3)
  store i32 0, i32* %2, align 4
  br label %9

9:                                                ; preds = %40, %0
  %10 = load i32, i32* %2, align 4
  %11 = load i32, i32* %3, align 4
  %12 = icmp slt i32 %10, %11
  br i1 %12, label %13, label %43

13:                                               ; preds = %9
  %14 = load i32, i32* %2, align 4
  %15 = sext i32 %14 to i64
  %16 = getelementptr inbounds [100 x %struct.student], [100 x %struct.student]* %1, i64 0, i64 %15
  %17 = getelementptr inbounds %struct.student, %struct.student* %16, i32 0, i32 0
  %18 = getelementptr inbounds [20 x i8], [20 x i8]* %17, i64 0, i64 0
  %19 = load i32, i32* %2, align 4
  %20 = sext i32 %19 to i64
  %21 = getelementptr inbounds [100 x %struct.student], [100 x %struct.student]* %1, i64 0, i64 %20
  %22 = getelementptr inbounds %struct.student, %struct.student* %21, i32 0, i32 1
  %23 = load i32, i32* %2, align 4
  %24 = sext i32 %23 to i64
  %25 = getelementptr inbounds [100 x %struct.student], [100 x %struct.student]* %1, i64 0, i64 %24
  %26 = getelementptr inbounds %struct.student, %struct.student* %25, i32 0, i32 2
  %27 = load i32, i32* %2, align 4
  %28 = sext i32 %27 to i64
  %29 = getelementptr inbounds [100 x %struct.student], [100 x %struct.student]* %1, i64 0, i64 %28
  %30 = getelementptr inbounds %struct.student, %struct.student* %29, i32 0, i32 3
  %31 = load i32, i32* %2, align 4
  %32 = sext i32 %31 to i64
  %33 = getelementptr inbounds [100 x %struct.student], [100 x %struct.student]* %1, i64 0, i64 %32
  %34 = getelementptr inbounds %struct.student, %struct.student* %33, i32 0, i32 4
  %35 = load i32, i32* %2, align 4
  %36 = sext i32 %35 to i64
  %37 = getelementptr inbounds [100 x %struct.student], [100 x %struct.student]* %1, i64 0, i64 %36
  %38 = getelementptr inbounds %struct.student, %struct.student* %37, i32 0, i32 5
  %39 = call i32 (i8*, ...) @__isoc99_scanf(i8* getelementptr inbounds ([15 x i8], [15 x i8]* @.str.1, i64 0, i64 0), i8* %18, i32* %22, i32* %26, i8* %30, i8* %34, i32* %38)
  br label %40

40:                                               ; preds = %13
  %41 = load i32, i32* %2, align 4
  %42 = add nsw i32 %41, 1
  store i32 %42, i32* %2, align 4
  br label %9

43:                                               ; preds = %9
  store i32 0, i32* %2, align 4
  store i32 0, i32* %4, align 4
  br label %44

44:                                               ; preds = %134, %43
  %45 = load i32, i32* %2, align 4
  %46 = load i32, i32* %3, align 4
  %47 = icmp slt i32 %45, %46
  br i1 %47, label %48, label %137

48:                                               ; preds = %44
  store i32 0, i32* %5, align 4
  %49 = load i32, i32* %2, align 4
  %50 = sext i32 %49 to i64
  %51 = getelementptr inbounds [100 x %struct.student], [100 x %struct.student]* %1, i64 0, i64 %50
  %52 = getelementptr inbounds %struct.student, %struct.student* %51, i32 0, i32 1
  %53 = load i32, i32* %52, align 4
  %54 = icmp sgt i32 %53, 80
  br i1 %54, label %55, label %63

55:                                               ; preds = %48
  %56 = load i32, i32* %2, align 4
  %57 = sext i32 %56 to i64
  %58 = getelementptr inbounds [100 x %struct.student], [100 x %struct.student]* %1, i64 0, i64 %57
  %59 = getelementptr inbounds %struct.student, %struct.student* %58, i32 0, i32 5
  %60 = load i32, i32* %59, align 4
  %61 = icmp sge i32 %60, 1
  br i1 %61, label %62, label %63

62:                                               ; preds = %55
  store i32 8000, i32* %5, align 4
  br label %63

63:                                               ; preds = %62, %55, %48
  %64 = load i32, i32* %2, align 4
  %65 = sext i32 %64 to i64
  %66 = getelementptr inbounds [100 x %struct.student], [100 x %struct.student]* %1, i64 0, i64 %65
  %67 = getelementptr inbounds %struct.student, %struct.student* %66, i32 0, i32 1
  %68 = load i32, i32* %67, align 4
  %69 = icmp sgt i32 %68, 85
  br i1 %69, label %70, label %80

70:                                               ; preds = %63
  %71 = load i32, i32* %2, align 4
  %72 = sext i32 %71 to i64
  %73 = getelementptr inbounds [100 x %struct.student], [100 x %struct.student]* %1, i64 0, i64 %72
  %74 = getelementptr inbounds %struct.student, %struct.student* %73, i32 0, i32 2
  %75 = load i32, i32* %74, align 4
  %76 = icmp sgt i32 %75, 80
  br i1 %76, label %77, label %80

77:                                               ; preds = %70
  %78 = load i32, i32* %5, align 4
  %79 = add nsw i32 %78, 4000
  store i32 %79, i32* %5, align 4
  br label %80

80:                                               ; preds = %77, %70, %63
  %81 = load i32, i32* %2, align 4
  %82 = sext i32 %81 to i64
  %83 = getelementptr inbounds [100 x %struct.student], [100 x %struct.student]* %1, i64 0, i64 %82
  %84 = getelementptr inbounds %struct.student, %struct.student* %83, i32 0, i32 1
  %85 = load i32, i32* %84, align 4
  %86 = icmp sgt i32 %85, 90
  br i1 %86, label %87, label %90

87:                                               ; preds = %80
  %88 = load i32, i32* %5, align 4
  %89 = add nsw i32 %88, 2000
  store i32 %89, i32* %5, align 4
  br label %90

90:                                               ; preds = %87, %80
  %91 = load i32, i32* %2, align 4
  %92 = sext i32 %91 to i64
  %93 = getelementptr inbounds [100 x %struct.student], [100 x %struct.student]* %1, i64 0, i64 %92
  %94 = getelementptr inbounds %struct.student, %struct.student* %93, i32 0, i32 1
  %95 = load i32, i32* %94, align 4
  %96 = icmp sgt i32 %95, 85
  br i1 %96, label %97, label %108

97:                                               ; preds = %90
  %98 = load i32, i32* %2, align 4
  %99 = sext i32 %98 to i64
  %100 = getelementptr inbounds [100 x %struct.student], [100 x %struct.student]* %1, i64 0, i64 %99
  %101 = getelementptr inbounds %struct.student, %struct.student* %100, i32 0, i32 4
  %102 = load i8, i8* %101, align 1
  %103 = sext i8 %102 to i32
  %104 = icmp eq i32 %103, 89
  br i1 %104, label %105, label %108

105:                                              ; preds = %97
  %106 = load i32, i32* %5, align 4
  %107 = add nsw i32 %106, 1000
  store i32 %107, i32* %5, align 4
  br label %108

108:                                              ; preds = %105, %97, %90
  %109 = load i32, i32* %2, align 4
  %110 = sext i32 %109 to i64
  %111 = getelementptr inbounds [100 x %struct.student], [100 x %struct.student]* %1, i64 0, i64 %110
  %112 = getelementptr inbounds %struct.student, %struct.student* %111, i32 0, i32 2
  %113 = load i32, i32* %112, align 4
  %114 = icmp sgt i32 %113, 80
  br i1 %114, label %115, label %126

115:                                              ; preds = %108
  %116 = load i32, i32* %2, align 4
  %117 = sext i32 %116 to i64
  %118 = getelementptr inbounds [100 x %struct.student], [100 x %struct.student]* %1, i64 0, i64 %117
  %119 = getelementptr inbounds %struct.student, %struct.student* %118, i32 0, i32 3
  %120 = load i8, i8* %119, align 4
  %121 = sext i8 %120 to i32
  %122 = icmp eq i32 %121, 89
  br i1 %122, label %123, label %126

123:                                              ; preds = %115
  %124 = load i32, i32* %5, align 4
  %125 = add nsw i32 %124, 850
  store i32 %125, i32* %5, align 4
  br label %126

126:                                              ; preds = %123, %115, %108
  %127 = load i32, i32* %5, align 4
  %128 = load i32, i32* %2, align 4
  %129 = sext i32 %128 to i64
  %130 = getelementptr inbounds [100 x i32], [100 x i32]* %7, i64 0, i64 %129
  store i32 %127, i32* %130, align 4
  %131 = load i32, i32* %4, align 4
  %132 = load i32, i32* %5, align 4
  %133 = add nsw i32 %131, %132
  store i32 %133, i32* %4, align 4
  br label %134

134:                                              ; preds = %126
  %135 = load i32, i32* %2, align 4
  %136 = add nsw i32 %135, 1
  store i32 %136, i32* %2, align 4
  br label %44

137:                                              ; preds = %44
  %138 = getelementptr inbounds [100 x i32], [100 x i32]* %7, i64 0, i64 0
  %139 = load i32, i32* %138, align 16
  store i32 %139, i32* %5, align 4
  store i32 0, i32* %6, align 4
  store i32 0, i32* %2, align 4
  br label %140

140:                                              ; preds = %158, %137
  %141 = load i32, i32* %2, align 4
  %142 = load i32, i32* %3, align 4
  %143 = icmp slt i32 %141, %142
  br i1 %143, label %144, label %161

144:                                              ; preds = %140
  %145 = load i32, i32* %5, align 4
  %146 = load i32, i32* %2, align 4
  %147 = sext i32 %146 to i64
  %148 = getelementptr inbounds [100 x i32], [100 x i32]* %7, i64 0, i64 %147
  %149 = load i32, i32* %148, align 4
  %150 = icmp slt i32 %145, %149
  br i1 %150, label %151, label %157

151:                                              ; preds = %144
  %152 = load i32, i32* %2, align 4
  %153 = sext i32 %152 to i64
  %154 = getelementptr inbounds [100 x i32], [100 x i32]* %7, i64 0, i64 %153
  %155 = load i32, i32* %154, align 4
  store i32 %155, i32* %5, align 4
  %156 = load i32, i32* %2, align 4
  store i32 %156, i32* %6, align 4
  br label %157

157:                                              ; preds = %151, %144
  br label %158

158:                                              ; preds = %157
  %159 = load i32, i32* %2, align 4
  %160 = add nsw i32 %159, 1
  store i32 %160, i32* %2, align 4
  br label %140

161:                                              ; preds = %140
  %162 = load i32, i32* %6, align 4
  %163 = sext i32 %162 to i64
  %164 = getelementptr inbounds [100 x %struct.student], [100 x %struct.student]* %1, i64 0, i64 %163
  %165 = getelementptr inbounds %struct.student, %struct.student* %164, i32 0, i32 0
  %166 = getelementptr inbounds [20 x i8], [20 x i8]* %165, i64 0, i64 0
  %167 = load i32, i32* %5, align 4
  %168 = load i32, i32* %4, align 4
  %169 = call i32 (i8*, ...) @printf(i8* getelementptr inbounds ([10 x i8], [10 x i8]* @.str.2, i64 0, i64 0), i8* %166, i32 %167, i32 %168)
  ret void
}

declare dso_local i32 @__isoc99_scanf(i8*, ...) #1

declare dso_local i32 @printf(i8*, ...) #1


!llvm.module.flags = !{!0}
!llvm.ident = !{!1}

!0 = !{i32 1, !"wchar_size", i32 4}
!1 = !{!"clang version 10.0.0-4ubuntu1 "}
